; Function Attrs: null_pointer_is_valid sspstrong uwtable
define ptr @oid_get(i32 noundef %0, ptr noundef readonly captures(address_is_null) %1, ptr noundef writeonly captures(none) %2, ptr noundef writeonly captures(none) %3) local_unnamed_addr #0 {
  %.not = icmp eq ptr %1, null
  br i1 %.not, label %8, label %5

5:                                                ; preds = %4
  %6 = load i32, ptr %1, align 4
  %7 = icmp ult i32 %6, 3
  br i1 %7, label %.preheader, label %8

.preheader:                                       ; preds = %5
  %.not33 = icmp eq i32 %0, 0
  br i1 %.not33, label %._crit_edge, label %.lr.ph.preheader

.lr.ph.preheader:                                 ; preds = %.preheader
  %wide.trip.count = zext i32 %0 to i64
  br label %.lr.ph

8:                                                ; preds = %5, %4
  store i32 0, ptr %2, align 4
  br label %17

.lr.ph:                                           ; preds = %.lr.ph.preheader, %14
  %indvars.iv = phi i64 [ 0, %.lr.ph.preheader ], [ %indvars.iv.next, %14 ]
  %.02327 = phi ptr [ @oid_root, %.lr.ph.preheader ], [ %13, %14 ]
  %9 = getelementptr inbounds nuw i8, ptr %.02327, i64 24
  %10 = load ptr, ptr %9, align 8
  %11 = getelementptr i32, ptr %1, i64 %indvars.iv
  %12 = load i32, ptr %11, align 4
  %13 = tail call ptr @wmem_tree_lookup32(ptr noundef %10, i32 noundef %12)
  %.not26 = icmp eq ptr %13, null
  br i1 %.not26, label %._crit_edge.loopexit.split.loop.exit, label %14

14:                                               ; preds = %.lr.ph
  %indvars.iv.next = add nuw nsw i64 %indvars.iv, 1
  %exitcond.not = icmp eq i64 %indvars.iv.next, %wide.trip.count
  br i1 %exitcond.not, label %._crit_edge, label %.lr.ph, !llvm.loop !15

._crit_edge.loopexit.split.loop.exit:             ; preds = %.lr.ph
  %15 = trunc nuw i64 %indvars.iv to i32
  br label %._crit_edge

._crit_edge:                                      ; preds = %14, %._crit_edge.loopexit.split.loop.exit, %.preheader
  %.023.lcssa = phi ptr [ @oid_root, %.preheader ], [ %.02327, %._crit_edge.loopexit.split.loop.exit ], [ %13, %14 ]
  %.022.lcssa = phi i32 [ 0, %.preheader ], [ %15, %._crit_edge.loopexit.split.loop.exit ], [ %0, %14 ]
  store i32 %.022.lcssa, ptr %2, align 4
  %16 = sub i32 %0, %.022.lcssa
  br label %17

17:                                               ; preds = %._crit_edge, %8
  %storemerge = phi i32 [ %16, %._crit_edge ], [ %0, %8 ]
  %.0 = phi ptr [ %.023.lcssa, %._crit_edge ], [ @oid_root, %8 ]
  store i32 %storemerge, ptr %3, align 4
  ret ptr %.0
}